; Function Attrs: mustprogress uwtable
define hidden noundef zeroext i1 @_ZN10duckdb_re23RE28ConsumeNEPNS_11StringPieceERKS0_PKPKNS0_3ArgEi(ptr noundef nonnull %0, ptr noundef nonnull align 8 dereferenceable(148) %1, ptr noundef captures(address_is_null) %2, i32 noundef %3) local_unnamed_addr #2 align 2 {
  %5 = alloca i64, align 8
  call void @llvm.lifetime.start.p0(i64 8, ptr nonnull %5) #31
  %6 = call noundef zeroext i1 @_ZNK10duckdb_re23RE27DoMatchERKNS_11StringPieceENS0_6AnchorEPmPKPKNS0_3ArgEi(ptr noundef nonnull align 8 dereferenceable(148) %1, ptr noundef nonnull align 8 dereferenceable(16) %0, i32 noundef 1, ptr noundef nonnull %5, ptr noundef %2, i32 noundef %3)
  br i1 %6, label %7, label %14

7:                                                ; preds = %4
  %8 = load i64, ptr %5, align 8, !tbaa !37
  %9 = load ptr, ptr %0, align 8, !tbaa !29
  %10 = getelementptr inbounds nuw i8, ptr %9, i64 %8
  store ptr %10, ptr %0, align 8, !tbaa !29
  %11 = getelementptr inbounds nuw i8, ptr %0, i64 8
  %12 = load i64, ptr %11, align 8, !tbaa !31
  %13 = sub i64 %12, %8
  store i64 %13, ptr %11, align 8, !tbaa !31
  br label %14

14:                                               ; preds = %4, %7
  call void @llvm.lifetime.end.p0(i64 8, ptr nonnull %5) #31
  ret i1 %6
}